target datalayout = "e-m:e-p270:32:32-p271:32:32-p272:64:64-i64:64-i128:128-f80:128-n8:16:32:64-S128"
target triple = "x86_64-pc-linux-gnu"

%struct.darktable_t = type { %struct.dt_codepath_t, i32, i32, ptr, ptr, ptr, ptr, ptr, ptr, ptr, ptr, ptr, ptr, ptr, ptr, ptr, ptr, ptr, ptr, ptr, ptr, ptr, ptr, ptr, ptr, ptr, ptr, ptr, ptr, ptr, [64 x %struct.dt_pthread_mutex_t], %struct.dt_pthread_mutex_t, %struct.dt_pthread_mutex_t, %struct.dt_pthread_mutex_t, %struct.dt_pthread_mutex_t, %struct.dt_pthread_mutex_t, ptr, ptr, ptr, ptr, ptr, ptr, ptr, ptr, ptr, ptr, ptr, ptr, ptr, %struct.dt_lua_state_t, ptr, double, ptr, i32, [47 x i32], i32, i32, ptr, ptr, %struct.dt_sys_resources_t, %struct.dt_backthumb_t, %struct.dt_gimp_t }
%struct.dt_codepath_t = type { i8, [3 x i8] }
%struct.dt_pthread_mutex_t = type { %union.pthread_mutex_t }
%union.pthread_mutex_t = type { %struct.__pthread_mutex_s }
%struct.__pthread_mutex_s = type { i32, i32, i32, i32, i32, i16, i16, %struct.__pthread_internal_list }
%struct.__pthread_internal_list = type { ptr, ptr }
%struct.dt_lua_state_t = type { i32 }
%struct.dt_sys_resources_t = type { i64, i64, ptr, ptr, i32 }
%struct.dt_backthumb_t = type { double, double, i32, i32, i32, i32 }
%struct.dt_gimp_t = type { i32, ptr, ptr, i32, i32 }
%struct._GdkRGBA = type { double, double, double, double }
%struct._DtBauhausWidget = type { %struct._GtkDrawingArea, i32, ptr, ptr, i32, [256 x i8], i32, ptr, i32, ptr, ptr, i32, ptr, i32, i32, i32, %struct._GtkBorder, %struct._GtkBorder, i32, %union.dt_bauhaus_data_t }
%struct._GtkDrawingArea = type { %struct._GtkWidget, ptr }
%struct._GtkWidget = type { %struct._GObject, ptr }
%struct._GObject = type { %struct._GTypeInstance, i32, ptr }
%struct._GTypeInstance = type { ptr }
%struct._GtkBorder = type { i16, i16, i16, i16 }
%union.dt_bauhaus_data_t = type { %struct.dt_bauhaus_slider_data_t }
%struct.dt_bauhaus_slider_data_t = type { float, float, float, float, float, float, float, float, float, float, i32, ptr, i32, ptr, i8, ptr, float, float, i8, i32, ptr }
%struct.dt_bauhaus_t = type { ptr, %struct.dt_bauhaus_popup_t, ptr, float, float, i32, i32, float, [180 x i8], i32, i32, [2 x i32], i32, ptr, ptr, float, float, float, float, float, ptr, ptr, i32, i32, i32, %struct._GdkRGBA, %struct._GdkRGBA, %struct._GdkRGBA, %struct._GdkRGBA, %struct._GdkRGBA, %struct._GdkRGBA, %struct._GdkRGBA, %struct._GdkRGBA, %struct._GdkRGBA, %struct._GdkRGBA, %struct._GdkRGBA, %struct._GdkRGBA, %struct._GdkRGBA, %struct._GdkRGBA, %struct._GdkRGBA, [3 x %struct._GdkRGBA], [5 x %struct._GdkRGBA] }
%struct.dt_bauhaus_popup_t = type { ptr, ptr, %struct._GtkBorder, %struct._cairo_rectangle_int, i32, i32, i32 }
%struct._cairo_rectangle_int = type { i32, i32, i32, i32 }
%struct.dt_bauhaus_combobox_data_t = type { i32, i32, i32, i32, ptr, i32, ptr, i32, ptr }
%struct._GPtrArray = type { ptr, i32 }
%struct.dt_bauhaus_combobox_entry_t = type { ptr, i32, i32, ptr, ptr }

@darktable = external global %struct.darktable_t, align 8

; Function Attrs: nounwind uwtable
define internal ptr @_combobox_entry(ptr noundef %0, i32 noundef %1) #0 {
  %3 = alloca ptr, align 8
  %4 = alloca i32, align 4
  store ptr %0, ptr %3, align 8, !tbaa !153
  store i32 %1, ptr %4, align 4, !tbaa !13
  %5 = load ptr, ptr %3, align 8, !tbaa !153
  %6 = getelementptr inbounds nuw %struct.dt_bauhaus_combobox_data_t, ptr %5, i32 0, i32 6
  %7 = load ptr, ptr %6, align 8, !tbaa !156
  %8 = getelementptr inbounds nuw %struct._GPtrArray, ptr %7, i32 0, i32 0
  %9 = load ptr, ptr %8, align 8, !tbaa !289
  %10 = load i32, ptr %4, align 4, !tbaa !13
  %11 = sext i32 %10 to i64
  %12 = getelementptr inbounds ptr, ptr %9, i64 %11
  %13 = load ptr, ptr %12, align 8, !tbaa !32
  ret ptr %13
}

; Function Attrs: nounwind uwtable
define internal void @_combobox_next_sensitive(ptr noundef %0, i32 noundef %1, i32 noundef %2, i32 noundef %3) #0 {
  %5 = alloca ptr, align 8
  %6 = alloca i32, align 4
  %7 = alloca i32, align 4
  %8 = alloca i32, align 4
  %9 = alloca ptr, align 8
  %10 = alloca i32, align 4
  %11 = alloca i32, align 4
  %12 = alloca i32, align 4
  %13 = alloca ptr, align 8
  %14 = alloca ptr, align 8
  %15 = alloca ptr, align 8
  store ptr %0, ptr %5, align 8, !tbaa !17
  store i32 %1, ptr %6, align 4, !tbaa !13
  store i32 %2, ptr %7, align 4, !tbaa !13
  store i32 %3, ptr %8, align 4, !tbaa !13
  call void @llvm.lifetime.start.p0(i64 8, ptr %9) #13
  %16 = load ptr, ptr %5, align 8, !tbaa !17
  %17 = getelementptr inbounds nuw %struct._DtBauhausWidget, ptr %16, i32 0, i32 19
  store ptr %17, ptr %9, align 8, !tbaa !153
  %18 = load ptr, ptr %5, align 8, !tbaa !17
  %19 = call i64 @gtk_widget_get_type() #14
  %20 = call ptr @g_type_check_instance_cast(ptr noundef %18, i64 noundef %19)
  %21 = load i32, ptr %7, align 4, !tbaa !13
  %22 = call reassoc nsz arcp contract afn float @dt_accel_get_speed_multiplier(ptr noundef %20, i32 noundef %21)
  %23 = load i32, ptr %6, align 4, !tbaa !13
  %24 = sitofp i32 %23 to float
  %25 = fmul reassoc nsz arcp contract afn float %24, %22
  %26 = fptosi float %25 to i32
  store i32 %26, ptr %6, align 4, !tbaa !13
  call void @llvm.lifetime.start.p0(i64 4, ptr %10) #13
  %27 = load ptr, ptr %9, align 8, !tbaa !153
  %28 = getelementptr inbounds nuw %struct.dt_bauhaus_combobox_data_t, ptr %27, i32 0, i32 0
  %29 = load i32, ptr %28, align 8, !tbaa !163
  store i32 %29, ptr %10, align 4, !tbaa !13
  call void @llvm.lifetime.start.p0(i64 4, ptr %11) #13
  %30 = load i32, ptr %6, align 4, !tbaa !13
  %31 = icmp sgt i32 %30, 0
  %32 = select i1 %31, i32 1, i32 -1
  store i32 %32, ptr %11, align 4, !tbaa !13
  call void @llvm.lifetime.start.p0(i64 4, ptr %12) #13
  %33 = load i32, ptr %10, align 4, !tbaa !13
  %34 = load i32, ptr %11, align 4, !tbaa !13
  %35 = add nsw i32 %33, %34
  store i32 %35, ptr %12, align 4, !tbaa !13
  call void @llvm.lifetime.start.p0(i64 8, ptr %13) #13
  %36 = load ptr, ptr getelementptr inbounds nuw (%struct.darktable_t, ptr @darktable, i32 0, i32 17), align 8, !tbaa !78
  %37 = getelementptr inbounds nuw %struct.dt_bauhaus_t, ptr %36, i32 0, i32 8
  %38 = getelementptr inbounds [180 x i8], ptr %37, i64 0, i64 0
  %39 = load ptr, ptr getelementptr inbounds nuw (%struct.darktable_t, ptr @darktable, i32 0, i32 17), align 8, !tbaa !78
  %40 = getelementptr inbounds nuw %struct.dt_bauhaus_t, ptr %39, i32 0, i32 9
  %41 = load i32, ptr %40, align 8, !tbaa !103
  %42 = sext i32 %41 to i64
  %43 = call noalias ptr @g_utf8_casefold(ptr noundef %38, i64 noundef %42)
  store ptr %43, ptr %13, align 8, !tbaa !171
  br label %44

44:                                               ; preds = %82, %4
  %45 = load i32, ptr %6, align 4, !tbaa !13
  %46 = icmp ne i32 %45, 0
  br i1 %46, label %47, label %58

47:                                               ; preds = %44
  %48 = load i32, ptr %12, align 4, !tbaa !13
  %49 = icmp sge i32 %48, 0
  br i1 %49, label %50, label %58

50:                                               ; preds = %47
  %51 = load i32, ptr %12, align 4, !tbaa !13
  %52 = load ptr, ptr %9, align 8, !tbaa !153
  %53 = getelementptr inbounds nuw %struct.dt_bauhaus_combobox_data_t, ptr %52, i32 0, i32 6
  %54 = load ptr, ptr %53, align 8, !tbaa !156
  %55 = getelementptr inbounds nuw %struct._GPtrArray, ptr %54, i32 0, i32 1
  %56 = load i32, ptr %55, align 8, !tbaa !159
  %57 = icmp ult i32 %51, %56
  br label %58

58:                                               ; preds = %50, %47, %44
  %59 = phi i1 [ false, %47 ], [ false, %44 ], [ %57, %50 ]
  br i1 %59, label %60, label %87

60:                                               ; preds = %58
  call void @llvm.lifetime.start.p0(i64 8, ptr %14) #13
  %61 = load ptr, ptr %9, align 8, !tbaa !153
  %62 = load i32, ptr %12, align 4, !tbaa !13
  %63 = call ptr @_combobox_entry(ptr noundef %61, i32 noundef %62)
  store ptr %63, ptr %14, align 8, !tbaa !174
  call void @llvm.lifetime.start.p0(i64 8, ptr %15) #13
  %64 = load ptr, ptr %14, align 8, !tbaa !174
  %65 = getelementptr inbounds nuw %struct.dt_bauhaus_combobox_entry_t, ptr %64, i32 0, i32 0
  %66 = load ptr, ptr %65, align 8, !tbaa !176
  %67 = call noalias ptr @g_utf8_casefold(ptr noundef %66, i64 noundef -1)
  store ptr %67, ptr %15, align 8, !tbaa !171
  %68 = load ptr, ptr %14, align 8, !tbaa !174
  %69 = getelementptr inbounds nuw %struct.dt_bauhaus_combobox_entry_t, ptr %68, i32 0, i32 2
  %70 = load i32, ptr %69, align 4, !tbaa !161
  %71 = icmp ne i32 %70, 0
  br i1 %71, label %72, label %82

72:                                               ; preds = %60
  %73 = load ptr, ptr %15, align 8, !tbaa !171
  %74 = load ptr, ptr %13, align 8, !tbaa !171
  %75 = call ptr @strstr(ptr noundef %73, ptr noundef %74) #16
  %76 = icmp ne ptr %75, null
  br i1 %76, label %77, label %82

77:                                               ; preds = %72
  %78 = load i32, ptr %12, align 4, !tbaa !13
  store i32 %78, ptr %10, align 4, !tbaa !13
  %79 = load i32, ptr %11, align 4, !tbaa !13
  %80 = load i32, ptr %6, align 4, !tbaa !13
  %81 = sub nsw i32 %80, %79
  store i32 %81, ptr %6, align 4, !tbaa !13
  br label %82

82:                                               ; preds = %77, %72, %60
  %83 = load ptr, ptr %15, align 8, !tbaa !171
  call void @g_free(ptr noundef %83)
  %84 = load i32, ptr %11, align 4, !tbaa !13
  %85 = load i32, ptr %12, align 4, !tbaa !13
  %86 = add nsw i32 %85, %84
  store i32 %86, ptr %12, align 4, !tbaa !13
  call void @llvm.lifetime.end.p0(i64 8, ptr %15) #13
  call void @llvm.lifetime.end.p0(i64 8, ptr %14) #13
  br label %44

87:                                               ; preds = %58
  %88 = load ptr, ptr %13, align 8, !tbaa !171
  call void @g_free(ptr noundef %88)
  %89 = load ptr, ptr %5, align 8, !tbaa !17
  %90 = load i32, ptr %10, align 4, !tbaa !13
  %91 = load i32, ptr %8, align 4, !tbaa !13
  call void @_combobox_set(ptr noundef %89, i32 noundef %90, i32 noundef %91)
  call void @llvm.lifetime.end.p0(i64 8, ptr %13) #13
  call void @llvm.lifetime.end.p0(i64 4, ptr %12) #13
  call void @llvm.lifetime.end.p0(i64 4, ptr %11) #13
  call void @llvm.lifetime.end.p0(i64 4, ptr %10) #13
  call void @llvm.lifetime.end.p0(i64 8, ptr %9) #13
  ret void
}