; Function Attrs: nounwind uwtable
define internal fastcc void @_combobox_next_sensitive(ptr noundef %0, i32 noundef %1, i32 noundef range(i32 0, 1543512064) %2, i32 noundef %3) unnamed_addr #0 {
  %5 = getelementptr inbounds nuw i8, ptr %0, i64 408
  %6 = tail call i64 @gtk_widget_get_type() #20
  %7 = tail call ptr @g_type_check_instance_cast(ptr noundef %0, i64 noundef %6) #19
  %8 = tail call reassoc nsz arcp contract afn float @dt_accel_get_speed_multiplier(ptr noundef %7, i32 noundef %2) #19
  %9 = sitofp i32 %1 to float
  %10 = fmul reassoc nsz arcp contract afn float %8, %9
  %11 = fptosi float %10 to i32
  %12 = load i32, ptr %5, align 8, !tbaa !137
  %.inv = icmp slt i32 %11, 1
  %13 = select i1 %.inv, i32 -1, i32 1
  %14 = load ptr, ptr getelementptr inbounds nuw (i8, ptr @darktable, i64 128), align 8, !tbaa !67
  %15 = getelementptr inbounds nuw i8, ptr %14, i64 92
  %16 = getelementptr inbounds nuw i8, ptr %14, i64 272
  %17 = load i32, ptr %16, align 8, !tbaa !107
  %18 = sext i32 %17 to i64
  %19 = tail call noalias ptr @g_utf8_casefold(ptr noundef nonnull %15, i64 noundef %18) #19
  %20 = getelementptr i8, ptr %0, i64 440
  %.03033 = add nsw i32 %12, %13
  %21 = icmp ne i32 %11, 0
  %22 = icmp sgt i32 %.03033, -1
  %or.cond34 = select i1 %21, i1 %22, i1 false
  br i1 %or.cond34, label %.lr.ph, label %.critedge

.lr.ph:                                           ; preds = %4, %38
  %.03037 = phi i32 [ %.030, %38 ], [ %.03033, %4 ]
  %.036 = phi i32 [ %.1, %38 ], [ %11, %4 ]
  %.02835 = phi i32 [ %.129, %38 ], [ %12, %4 ]
  %23 = load ptr, ptr %20, align 8, !tbaa !128
  %24 = getelementptr inbounds nuw i8, ptr %23, i64 8
  %25 = load i32, ptr %24, align 8, !tbaa !131
  %26 = icmp ult i32 %.03037, %25
  br i1 %26, label %27, label %.critedge

27:                                               ; preds = %.lr.ph
  %.val.val = load ptr, ptr %23, align 8, !tbaa !133
  %28 = zext nneg i32 %.03037 to i64
  %29 = getelementptr inbounds nuw ptr, ptr %.val.val, i64 %28
  %30 = load ptr, ptr %29, align 8, !tbaa !134
  %31 = load ptr, ptr %30, align 8, !tbaa !149
  %32 = tail call noalias ptr @g_utf8_casefold(ptr noundef %31, i64 noundef -1) #19
  %33 = getelementptr inbounds nuw i8, ptr %30, i64 12
  %34 = load i32, ptr %33, align 4, !tbaa !135
  %.not = icmp eq i32 %34, 0
  br i1 %.not, label %38, label %35

35:                                               ; preds = %27
  %36 = tail call ptr @strstr(ptr noundef nonnull dereferenceable(1) %32, ptr noundef nonnull dereferenceable(1) %19) #22
  %.not31 = icmp eq ptr %36, null
  %spec.select = select i1 %.not31, i32 %.02835, i32 %.03037
  %37 = select i1 %.not31, i32 0, i32 %13
  %spec.select32 = sub nsw i32 %.036, %37
  br label %38

38:                                               ; preds = %35, %27
  %.129 = phi i32 [ %.02835, %27 ], [ %spec.select, %35 ]
  %.1 = phi i32 [ %.036, %27 ], [ %spec.select32, %35 ]
  tail call void @g_free(ptr noundef %32) #19
  %.030 = add nsw i32 %.03037, %13
  %39 = icmp ne i32 %.1, 0
  %40 = icmp sgt i32 %.030, -1
  %or.cond = select i1 %39, i1 %40, i1 false
  br i1 %or.cond, label %.lr.ph, label %.critedge

.critedge:                                        ; preds = %.lr.ph, %38, %4
  %.028.lcssa = phi i32 [ %12, %4 ], [ %.129, %38 ], [ %.02835, %.lr.ph ]
  tail call void @g_free(ptr noundef %19) #19
  tail call fastcc void @_combobox_set(ptr noundef nonnull %0, i32 noundef %.028.lcssa, i32 noundef %3)
  ret void
}